target datalayout = "e-m:e-p270:32:32-p271:32:32-p272:64:64-i64:64-i128:128-f80:128-n8:16:32:64-S128"
target triple = "x86_64-pc-linux-gnu"

%struct._packet_info = type { ptr, ptr, i32, i32, %struct.nstime_t, %struct.nstime_t, %struct.nstime_t, i8, ptr, ptr, ptr, ptr, %struct._address, %struct._address, %struct._address, %struct._address, %struct._address, %struct._address, i32, ptr, i8, [3 x i8], %struct.anon, i32, i32, i32, i32, ptr, i8, ptr, ptr, i16, i16, i32, i32, i16, i32, i32, ptr, ptr, ptr, i8, i8, i16, i16, i16, i32, i16, i16, ptr, ptr, ptr, ptr, ptr, i32, i32 }
%struct.nstime_t = type { i64, i32 }
%struct._address = type { i32, i32, ptr, ptr }
%struct.anon = type { i8, [3 x i8] }

@hf_yami_message_id = internal global i32 0, align 4
@hf_yami_frame_number = internal global i32 0, align 4
@hf_yami_message_header_size = internal global i32 0, align 4
@hf_yami_frame_payload_size = internal global i32 0, align 4
@ett_yami = internal global i32 0, align 4
@.str.38 = private unnamed_addr constant [5 x i8] c"YAMI\00", align 1
@proto_yami = internal global i32 0, align 4
@.str.59 = private unnamed_addr constant [3 x i8] c"%s\00", align 1
@.str.60 = private unnamed_addr constant [14 x i8] c" (last frame)\00", align 1
@.str.61 = private unnamed_addr constant [24 x i8] c", (YAMI Frame Size: %d)\00", align 1

; Function Attrs: null_pointer_is_valid sspstrong uwtable
define internal i32 @dissect_yami_pdu(ptr noundef %0, ptr noundef %1, ptr noundef %2, ptr noundef %3) #0 {
  %5 = alloca ptr, align 8
  %6 = alloca ptr, align 8
  %7 = alloca ptr, align 8
  %8 = alloca ptr, align 8
  %9 = alloca ptr, align 8
  %10 = alloca ptr, align 8
  %11 = alloca i32, align 4
  %12 = alloca i32, align 4
  %13 = alloca i32, align 4
  %14 = alloca i32, align 4
  %15 = alloca i32, align 4
  %16 = alloca i32, align 4
  store ptr %0, ptr %5, align 8
  store ptr %1, ptr %6, align 8
  store ptr %2, ptr %7, align 8
  store ptr %3, ptr %8, align 8
  call void @llvm.lifetime.start.p0(i64 8, ptr %9) #3
  call void @llvm.lifetime.start.p0(i64 8, ptr %10) #3
  call void @llvm.lifetime.start.p0(i64 4, ptr %11) #3
  call void @llvm.lifetime.start.p0(i64 4, ptr %12) #3
  call void @llvm.lifetime.start.p0(i64 4, ptr %13) #3
  call void @llvm.lifetime.start.p0(i64 4, ptr %14) #3
  call void @llvm.lifetime.start.p0(i64 4, ptr %15) #3
  %17 = load ptr, ptr %6, align 8
  %18 = getelementptr inbounds nuw %struct._packet_info, ptr %17, i32 0, i32 1
  %19 = load ptr, ptr %18, align 8
  call void @col_set_str(ptr noundef %19, i32 noundef 35, ptr noundef @.str.38)
  %20 = load ptr, ptr %6, align 8
  %21 = getelementptr inbounds nuw %struct._packet_info, ptr %20, i32 0, i32 1
  %22 = load ptr, ptr %21, align 8
  call void @col_clear(ptr noundef %22, i32 noundef 25)
  %23 = load ptr, ptr %7, align 8
  %24 = load i32, ptr @proto_yami, align 4
  %25 = load ptr, ptr %5, align 8
  %26 = call ptr @proto_tree_add_item(ptr noundef %23, i32 noundef %24, ptr noundef %25, i32 noundef 0, i32 noundef -1, i32 noundef 0)
  store ptr %26, ptr %10, align 8
  %27 = load ptr, ptr %10, align 8
  %28 = load i32, ptr @ett_yami, align 4
  %29 = call ptr @proto_item_add_subtree(ptr noundef %27, i32 noundef %28)
  store ptr %29, ptr %9, align 8
  store i32 0, ptr %15, align 4
  %30 = load ptr, ptr %9, align 8
  %31 = load i32, ptr @hf_yami_message_id, align 4
  %32 = load ptr, ptr %5, align 8
  %33 = load i32, ptr %15, align 4
  %34 = call ptr @proto_tree_add_item(ptr noundef %30, i32 noundef %31, ptr noundef %32, i32 noundef %33, i32 noundef 4, i32 noundef -2147483648)
  %35 = load i32, ptr %15, align 4
  %36 = add i32 %35, 4
  store i32 %36, ptr %15, align 4
  %37 = load ptr, ptr %5, align 8
  %38 = load i32, ptr %15, align 4
  %39 = call i32 @tvb_get_letohl(ptr noundef %37, i32 noundef %38)
  store i32 %39, ptr %11, align 4
  %40 = load ptr, ptr %9, align 8
  %41 = load i32, ptr @hf_yami_frame_number, align 4
  %42 = load ptr, ptr %5, align 8
  %43 = load i32, ptr %15, align 4
  %44 = call ptr @proto_tree_add_item(ptr noundef %40, i32 noundef %41, ptr noundef %42, i32 noundef %43, i32 noundef 4, i32 noundef -2147483648)
  store ptr %44, ptr %10, align 8
  %45 = load i32, ptr %11, align 4
  %46 = icmp slt i32 %45, 0
  br i1 %46, label %47, label %49

47:                                               ; preds = %4
  %48 = load ptr, ptr %10, align 8
  call void (ptr, ptr, ...) @proto_item_append_text(ptr noundef %48, ptr noundef @.str.59, ptr noundef @.str.60)
  br label %49

49:                                               ; preds = %47, %4
  %50 = load i32, ptr %15, align 4
  %51 = add i32 %50, 4
  store i32 %51, ptr %15, align 4
  %52 = load ptr, ptr %5, align 8
  %53 = load i32, ptr %15, align 4
  %54 = call i32 @tvb_get_letohl(ptr noundef %52, i32 noundef %53)
  store i32 %54, ptr %12, align 4
  %55 = load ptr, ptr %9, align 8
  %56 = load i32, ptr @hf_yami_message_header_size, align 4
  %57 = load ptr, ptr %5, align 8
  %58 = load i32, ptr %15, align 4
  %59 = call ptr @proto_tree_add_item(ptr noundef %55, i32 noundef %56, ptr noundef %57, i32 noundef %58, i32 noundef 4, i32 noundef -2147483648)
  %60 = load i32, ptr %12, align 4
  %61 = icmp slt i32 %60, 4
  br i1 %61, label %62, label %63

62:                                               ; preds = %49
  br label %63

63:                                               ; preds = %62, %49
  %64 = load i32, ptr %15, align 4
  %65 = add i32 %64, 4
  store i32 %65, ptr %15, align 4
  %66 = load ptr, ptr %5, align 8
  %67 = load i32, ptr %15, align 4
  %68 = call i32 @tvb_get_letohl(ptr noundef %66, i32 noundef %67)
  store i32 %68, ptr %13, align 4
  %69 = load ptr, ptr %9, align 8
  %70 = load i32, ptr @hf_yami_frame_payload_size, align 4
  %71 = load ptr, ptr %5, align 8
  %72 = load i32, ptr %15, align 4
  %73 = call ptr @proto_tree_add_item(ptr noundef %69, i32 noundef %70, ptr noundef %71, i32 noundef %72, i32 noundef 4, i32 noundef -2147483648)
  store ptr %73, ptr %10, align 8
  %74 = load i32, ptr %13, align 4
  %75 = add i32 %74, 16
  store i32 %75, ptr %14, align 4
  %76 = load ptr, ptr %10, align 8
  %77 = load i32, ptr %14, align 4
  call void (ptr, ptr, ...) @proto_item_append_text(ptr noundef %76, ptr noundef @.str.61, i32 noundef %77)
  %78 = load i32, ptr %15, align 4
  %79 = add i32 %78, 4
  store i32 %79, ptr %15, align 4
  %80 = load i32, ptr %11, align 4
  %81 = icmp eq i32 %80, 1
  br i1 %81, label %85, label %82

82:                                               ; preds = %63
  %83 = load i32, ptr %11, align 4
  %84 = icmp eq i32 %83, -1
  br i1 %84, label %85, label %112

85:                                               ; preds = %82, %63
  %86 = load i32, ptr %12, align 4
  %87 = load i32, ptr %13, align 4
  %88 = icmp sle i32 %86, %87
  br i1 %88, label %89, label %111

89:                                               ; preds = %85
  call void @llvm.lifetime.start.p0(i64 4, ptr %16) #3
  %90 = load i32, ptr %15, align 4
  store i32 %90, ptr %16, align 4
  %91 = load ptr, ptr %5, align 8
  %92 = load ptr, ptr %6, align 8
  %93 = load ptr, ptr %9, align 8
  %94 = load i32, ptr %15, align 4
  %95 = call i32 @dissect_yami_data(ptr noundef %91, ptr noundef %92, i1 noundef zeroext false, ptr noundef %93, i32 noundef %94)
  store i32 %95, ptr %15, align 4
  %96 = load i32, ptr %15, align 4
  %97 = load i32, ptr %16, align 4
  %98 = load i32, ptr %12, align 4
  %99 = add i32 %97, %98
  %100 = icmp ne i32 %96, %99
  br i1 %100, label %101, label %105

101:                                              ; preds = %89
  %102 = load i32, ptr %16, align 4
  %103 = load i32, ptr %12, align 4
  %104 = add i32 %102, %103
  store i32 %104, ptr %15, align 4
  br label %105

105:                                              ; preds = %101, %89
  %106 = load ptr, ptr %5, align 8
  %107 = load ptr, ptr %6, align 8
  %108 = load ptr, ptr %9, align 8
  %109 = load i32, ptr %15, align 4
  %110 = call i32 @dissect_yami_data(ptr noundef %106, ptr noundef %107, i1 noundef zeroext true, ptr noundef %108, i32 noundef %109)
  call void @llvm.lifetime.end.p0(i64 4, ptr %16) #3
  br label %111

111:                                              ; preds = %105, %85
  br label %112

112:                                              ; preds = %111, %82
  %113 = load ptr, ptr %5, align 8
  %114 = call i32 @tvb_captured_length(ptr noundef %113)
  call void @llvm.lifetime.end.p0(i64 4, ptr %15) #3
  call void @llvm.lifetime.end.p0(i64 4, ptr %14) #3
  call void @llvm.lifetime.end.p0(i64 4, ptr %13) #3
  call void @llvm.lifetime.end.p0(i64 4, ptr %12) #3
  call void @llvm.lifetime.end.p0(i64 4, ptr %11) #3
  call void @llvm.lifetime.end.p0(i64 8, ptr %10) #3
  call void @llvm.lifetime.end.p0(i64 8, ptr %9) #3
  ret i32 %114
}