; Function Attrs: null_pointer_is_valid sspstrong uwtable
define internal i32 @dissect_yami_pdu(ptr noundef %0, ptr noundef %1, ptr noundef %2, ptr readnone captures(none) %3) #0 {
  %5 = getelementptr inbounds nuw i8, ptr %1, i64 8
  %6 = load ptr, ptr %5, align 8
  tail call void @col_set_str(ptr noundef %6, i32 noundef 35, ptr noundef nonnull @.str.38)
  %7 = load ptr, ptr %5, align 8
  tail call void @col_clear(ptr noundef %7, i32 noundef 25)
  %8 = load i32, ptr @proto_yami, align 4
  %9 = tail call ptr @proto_tree_add_item(ptr noundef %2, i32 noundef %8, ptr noundef %0, i32 noundef 0, i32 noundef -1, i32 noundef 0)
  %10 = load i32, ptr @ett_yami, align 4
  %11 = tail call ptr @proto_item_add_subtree(ptr noundef %9, i32 noundef %10)
  %12 = load i32, ptr @hf_yami_message_id, align 4
  %13 = tail call ptr @proto_tree_add_item(ptr noundef %11, i32 noundef %12, ptr noundef %0, i32 noundef 0, i32 noundef 4, i32 noundef -2147483648)
  %14 = tail call i32 @tvb_get_letohl(ptr noundef %0, i32 noundef 4)
  %15 = load i32, ptr @hf_yami_frame_number, align 4
  %16 = tail call ptr @proto_tree_add_item(ptr noundef %11, i32 noundef %15, ptr noundef %0, i32 noundef 4, i32 noundef 4, i32 noundef -2147483648)
  %17 = icmp slt i32 %14, 0
  br i1 %17, label %18, label %19

18:                                               ; preds = %4
  tail call void (ptr, ptr, ...) @proto_item_append_text(ptr noundef %16, ptr noundef nonnull @.str.59, ptr noundef nonnull @.str.60)
  br label %19

19:                                               ; preds = %18, %4
  %20 = tail call i32 @tvb_get_letohl(ptr noundef %0, i32 noundef 8)
  %21 = load i32, ptr @hf_yami_message_header_size, align 4
  %22 = tail call ptr @proto_tree_add_item(ptr noundef %11, i32 noundef %21, ptr noundef %0, i32 noundef 8, i32 noundef 4, i32 noundef -2147483648)
  %23 = tail call i32 @tvb_get_letohl(ptr noundef %0, i32 noundef 12)
  %24 = load i32, ptr @hf_yami_frame_payload_size, align 4
  %25 = tail call ptr @proto_tree_add_item(ptr noundef %11, i32 noundef %24, ptr noundef %0, i32 noundef 12, i32 noundef 4, i32 noundef -2147483648)
  %26 = add i32 %23, 16
  tail call void (ptr, ptr, ...) @proto_item_append_text(ptr noundef %25, ptr noundef nonnull @.str.61, i32 noundef %26)
  switch i32 %14, label %30 [
    i32 -1, label %27
    i32 1, label %27
  ]

27:                                               ; preds = %19, %19
  %.not = icmp sgt i32 %20, %23
  br i1 %.not, label %30, label %28

28:                                               ; preds = %27
  tail call fastcc void @dissect_yami_data(ptr noundef %0, ptr noundef %1, i1 noundef zeroext false, ptr noundef %11, i32 noundef 16)
  %29 = add i32 %20, 16
  tail call fastcc void @dissect_yami_data(ptr noundef %0, ptr noundef %1, i1 noundef zeroext true, ptr noundef %11, i32 noundef %29)
  br label %30

30:                                               ; preds = %19, %27, %28
  %31 = tail call i32 @tvb_captured_length(ptr noundef %0)
  ret i32 %31
}